target datalayout = "e-m:e-p270:32:32-p271:32:32-p272:64:64-i64:64-i128:128-f80:128-n8:16:32:64-S128"
target triple = "x86_64-pc-linux-gnu"

%struct.strbuf = type { i64, i64, ptr }
%struct.object_id = type { [32 x i8], i32 }
%struct.apply_state = type { ptr, %struct.lock_file, i32, i32, i32, i32, i32, i32, i32, i32, i32, i32, i32, i32, i32, i32, i32, i32, i32, ptr, ptr, i32, i32, ptr, ptr, i32, %struct.strbuf, i32, i32, i32, %struct.string_list, i32, i32, %struct.strset, %struct.strset, i32, i32, %struct.string_list, ptr, ptr, i32, i32, ptr, i32, i32, i32 }
%struct.lock_file = type { ptr }
%struct.strset = type { %struct.strmap }
%struct.strmap = type { %struct.hashmap, ptr, i8 }
%struct.hashmap = type { ptr, ptr, ptr, i32, i32, i32, i32, i8 }
%struct.string_list = type { ptr, i64, i64, i8, ptr }
%struct.cache_time = type { i32, i32 }
%struct.cache_entry = type { %struct.hashmap_entry, %struct.stat_data, i32, i32, i32, i32, i32, %struct.object_id, [0 x i8] }
%struct.hashmap_entry = type { ptr, i32 }
%struct.stat_data = type { %struct.cache_time, %struct.cache_time, i32, i32, i32, i32, i32 }

@.str.23 = private unnamed_addr constant [1 x i8] zeroinitializer, align 1
@the_repository = external global ptr, align 8
@git_gettext_enabled = external global i32, align 4
@.str.188 = private unnamed_addr constant [18 x i8] c"failed to read %s\00", align 1
@.str.189 = private unnamed_addr constant [41 x i8] c"reading from '%s' beyond a symbolic link\00", align 1
@.str.190 = private unnamed_addr constant [22 x i8] c"Subproject commit %s\0A\00", align 1

; Function Attrs: nounwind uwtable
define internal i32 @read_blob_object(ptr noundef %0, ptr noundef %1, i32 noundef %2) #0 {
  %4 = alloca i32, align 4
  %5 = alloca ptr, align 8
  %6 = alloca ptr, align 8
  %7 = alloca i32, align 4
  %8 = alloca i32, align 4
  %9 = alloca i64, align 8
  %10 = alloca ptr, align 8
  %11 = alloca i32, align 4
  store ptr %0, ptr %5, align 8, !tbaa !75
  store ptr %1, ptr %6, align 8, !tbaa !268
  store i32 %2, ptr %7, align 4, !tbaa !39
  %12 = load i32, ptr %7, align 4, !tbaa !39
  %13 = and i32 %12, 61440
  %14 = icmp eq i32 %13, 57344
  br i1 %14, label %15, label %20

15:                                               ; preds = %3
  %16 = load ptr, ptr %5, align 8, !tbaa !75
  call void @strbuf_grow(ptr noundef %16, i64 noundef 100)
  %17 = load ptr, ptr %5, align 8, !tbaa !75
  %18 = load ptr, ptr %6, align 8, !tbaa !268
  %19 = call ptr @oid_to_hex(ptr noundef %18)
  call void (ptr, ptr, ...) @strbuf_addf(ptr noundef %17, ptr noundef @.str.190, ptr noundef %19)
  br label %36

20:                                               ; preds = %3
  call void @llvm.lifetime.start.p0(i64 4, ptr %8) #12
  call void @llvm.lifetime.start.p0(i64 8, ptr %9) #12
  call void @llvm.lifetime.start.p0(i64 8, ptr %10) #12
  %21 = load ptr, ptr @the_repository, align 8, !tbaa !9
  %22 = load ptr, ptr %6, align 8, !tbaa !268
  %23 = call ptr @repo_read_object_file(ptr noundef %21, ptr noundef %22, ptr noundef %8, ptr noundef %9)
  store ptr %23, ptr %10, align 8, !tbaa !11
  %24 = load ptr, ptr %10, align 8, !tbaa !11
  %25 = icmp ne ptr %24, null
  br i1 %25, label %27, label %26

26:                                               ; preds = %20
  store i32 -1, ptr %4, align 4
  store i32 1, ptr %11, align 4
  br label %33

27:                                               ; preds = %20
  %28 = load ptr, ptr %5, align 8, !tbaa !75
  %29 = load ptr, ptr %10, align 8, !tbaa !11
  %30 = load i64, ptr %9, align 8, !tbaa !87
  %31 = load i64, ptr %9, align 8, !tbaa !87
  %32 = add i64 %31, 1
  call void @strbuf_attach(ptr noundef %28, ptr noundef %29, i64 noundef %30, i64 noundef %32)
  store i32 0, ptr %11, align 4
  br label %33

33:                                               ; preds = %27, %26
  call void @llvm.lifetime.end.p0(i64 8, ptr %10) #12
  call void @llvm.lifetime.end.p0(i64 8, ptr %9) #12
  call void @llvm.lifetime.end.p0(i64 4, ptr %8) #12
  %34 = load i32, ptr %11, align 4
  switch i32 %34, label %39 [
    i32 0, label %35
    i32 1, label %37
  ]

35:                                               ; preds = %33
  br label %36

36:                                               ; preds = %35, %15
  store i32 0, ptr %4, align 4
  br label %37

37:                                               ; preds = %36, %33
  %38 = load i32, ptr %4, align 4
  ret i32 %38

39:                                               ; preds = %33
  unreachable
}

; Function Attrs: inlinehint nounwind uwtable
define internal i32 @const_error() #3 {
  ret i32 -1
}

; Function Attrs: inlinehint nounwind uwtable
define internal ptr @_(ptr noundef %0) #3 {
  %2 = alloca ptr, align 8
  %3 = alloca ptr, align 8
  store ptr %0, ptr %3, align 8, !tbaa !11
  %4 = load ptr, ptr %3, align 8, !tbaa !11
  %5 = load i8, ptr %4, align 1, !tbaa !57
  %6 = icmp ne i8 %5, 0
  br i1 %6, label %8, label %7

7:                                                ; preds = %1
  store ptr @.str.23, ptr %2, align 8
  br label %16

8:                                                ; preds = %1
  %9 = load i32, ptr @git_gettext_enabled, align 4, !tbaa !39
  %10 = icmp ne i32 %9, 0
  br i1 %10, label %13, label %11

11:                                               ; preds = %8
  %12 = load ptr, ptr %3, align 8, !tbaa !11
  store ptr %12, ptr %2, align 8
  br label %16

13:                                               ; preds = %8
  %14 = load ptr, ptr %3, align 8, !tbaa !11
  %15 = call ptr @dcgettext(ptr noundef null, ptr noundef %14, i32 noundef 5) #12
  store ptr %15, ptr %2, align 8
  br label %16

16:                                               ; preds = %13, %11, %7
  %17 = load ptr, ptr %2, align 8
  ret ptr %17
}

; Function Attrs: nounwind uwtable
define internal i32 @read_file_or_gitlink(ptr noundef %0, ptr noundef %1) #0 {
  %3 = alloca i32, align 4
  %4 = alloca ptr, align 8
  %5 = alloca ptr, align 8
  store ptr %0, ptr %4, align 8, !tbaa !201
  store ptr %1, ptr %5, align 8, !tbaa !75
  %6 = load ptr, ptr %4, align 8, !tbaa !201
  %7 = icmp ne ptr %6, null
  br i1 %7, label %9, label %8

8:                                                ; preds = %2
  store i32 0, ptr %3, align 4
  br label %17

9:                                                ; preds = %2
  %10 = load ptr, ptr %5, align 8, !tbaa !75
  %11 = load ptr, ptr %4, align 8, !tbaa !201
  %12 = getelementptr inbounds nuw %struct.cache_entry, ptr %11, i32 0, i32 7
  %13 = load ptr, ptr %4, align 8, !tbaa !201
  %14 = getelementptr inbounds nuw %struct.cache_entry, ptr %13, i32 0, i32 2
  %15 = load i32, ptr %14, align 4, !tbaa !39
  %16 = call i32 @read_blob_object(ptr noundef %10, ptr noundef %12, i32 noundef %15)
  store i32 %16, ptr %3, align 4
  br label %17

17:                                               ; preds = %9, %8
  %18 = load i32, ptr %3, align 4
  ret i32 %18
}

; Function Attrs: nounwind uwtable
define internal i32 @load_patch_target(ptr noundef %0, ptr noundef %1, ptr noundef %2, ptr noundef %3, ptr noundef %4, ptr noundef %5, i32 noundef %6) #0 {
  %8 = alloca i32, align 4
  %9 = alloca ptr, align 8
  %10 = alloca ptr, align 8
  %11 = alloca ptr, align 8
  %12 = alloca ptr, align 8
  %13 = alloca ptr, align 8
  %14 = alloca ptr, align 8
  %15 = alloca i32, align 4
  store ptr %0, ptr %9, align 8, !tbaa !4
  store ptr %1, ptr %10, align 8, !tbaa !75
  store ptr %2, ptr %11, align 8, !tbaa !201
  store ptr %3, ptr %12, align 8, !tbaa !241
  store ptr %4, ptr %13, align 8, !tbaa !60
  store ptr %5, ptr %14, align 8, !tbaa !11
  store i32 %6, ptr %15, align 4, !tbaa !39
  %16 = load ptr, ptr %9, align 8, !tbaa !4
  %17 = getelementptr inbounds nuw %struct.apply_state, ptr %16, i32 0, i32 3
  %18 = load i32, ptr %17, align 4, !tbaa !52
  %19 = icmp ne i32 %18, 0
  br i1 %19, label %25, label %20

20:                                               ; preds = %7
  %21 = load ptr, ptr %9, align 8, !tbaa !4
  %22 = getelementptr inbounds nuw %struct.apply_state, ptr %21, i32 0, i32 5
  %23 = load i32, ptr %22, align 4, !tbaa !46
  %24 = icmp ne i32 %23, 0
  br i1 %24, label %25, label %36

25:                                               ; preds = %20, %7
  %26 = load ptr, ptr %11, align 8, !tbaa !201
  %27 = load ptr, ptr %10, align 8, !tbaa !75
  %28 = call i32 @read_file_or_gitlink(ptr noundef %26, ptr noundef %27)
  %29 = icmp ne i32 %28, 0
  br i1 %29, label %30, label %35

30:                                               ; preds = %25
  %31 = call ptr @_(ptr noundef @.str.188)
  %32 = load ptr, ptr %14, align 8, !tbaa !11
  %33 = call i32 (ptr, ...) @error(ptr noundef %31, ptr noundef %32)
  %34 = call i32 @const_error()
  store i32 %34, ptr %8, align 4
  br label %80

35:                                               ; preds = %25
  br label %79

36:                                               ; preds = %20
  %37 = load ptr, ptr %14, align 8, !tbaa !11
  %38 = icmp ne ptr %37, null
  br i1 %38, label %39, label %78

39:                                               ; preds = %36
  %40 = load i32, ptr %15, align 4, !tbaa !39
  %41 = and i32 %40, 61440
  %42 = icmp eq i32 %41, 57344
  br i1 %42, label %43, label %51

43:                                               ; preds = %39
  %44 = load ptr, ptr %11, align 8, !tbaa !201
  %45 = icmp ne ptr %44, null
  br i1 %45, label %46, label %50

46:                                               ; preds = %43
  %47 = load ptr, ptr %11, align 8, !tbaa !201
  %48 = load ptr, ptr %10, align 8, !tbaa !75
  %49 = call i32 @read_file_or_gitlink(ptr noundef %47, ptr noundef %48)
  store i32 %49, ptr %8, align 4
  br label %80

50:                                               ; preds = %43
  store i32 1, ptr %8, align 4
  br label %80

51:                                               ; preds = %39
  %52 = load ptr, ptr %14, align 8, !tbaa !11
  %53 = load ptr, ptr %14, align 8, !tbaa !11
  %54 = call i64 @strlen(ptr noundef %53) #11
  %55 = trunc i64 %54 to i32
  %56 = call i32 @has_symlink_leading_path(ptr noundef %52, i32 noundef %55)
  %57 = icmp ne i32 %56, 0
  br i1 %57, label %58, label %63

58:                                               ; preds = %51
  %59 = call ptr @_(ptr noundef @.str.189)
  %60 = load ptr, ptr %14, align 8, !tbaa !11
  %61 = call i32 (ptr, ...) @error(ptr noundef %59, ptr noundef %60)
  %62 = call i32 @const_error()
  store i32 %62, ptr %8, align 4
  br label %80

63:                                               ; preds = %51
  %64 = load ptr, ptr %12, align 8, !tbaa !241
  %65 = load ptr, ptr %13, align 8, !tbaa !60
  %66 = load ptr, ptr %14, align 8, !tbaa !11
  %67 = load ptr, ptr %10, align 8, !tbaa !75
  %68 = call i32 @read_old_data(ptr noundef %64, ptr noundef %65, ptr noundef %66, ptr noundef %67)
  %69 = icmp ne i32 %68, 0
  br i1 %69, label %70, label %75

70:                                               ; preds = %63
  %71 = call ptr @_(ptr noundef @.str.188)
  %72 = load ptr, ptr %14, align 8, !tbaa !11
  %73 = call i32 (ptr, ...) @error(ptr noundef %71, ptr noundef %72)
  %74 = call i32 @const_error()
  store i32 %74, ptr %8, align 4
  br label %80

75:                                               ; preds = %63
  br label %76

76:                                               ; preds = %75
  br label %77

77:                                               ; preds = %76
  br label %78

78:                                               ; preds = %77, %36
  br label %79

79:                                               ; preds = %78, %35
  store i32 0, ptr %8, align 4
  br label %80

80:                                               ; preds = %79, %70, %58, %50, %46, %30
  %81 = load i32, ptr %8, align 4
  ret i32 %81
}