; Function Attrs: nounwind uwtable
define internal fastcc range(i32 -1, 2) i32 @load_patch_target(ptr noundef readonly captures(none) %0, ptr noundef nonnull %1, ptr noundef %2, ptr noundef nonnull readonly captures(none) %3, ptr noundef nonnull readonly captures(none) %4, ptr noundef %5, i32 noundef %6) unnamed_addr #0 {
  %8 = alloca i32, align 4
  %9 = alloca i64, align 8
  %10 = alloca i32, align 4
  %11 = alloca i64, align 8
  %12 = getelementptr inbounds nuw i8, ptr %0, i64 20
  %13 = load i32, ptr %12, align 4, !tbaa !48
  %.not = icmp eq i32 %13, 0
  br i1 %.not, label %14, label %17

14:                                               ; preds = %7
  %15 = getelementptr inbounds nuw i8, ptr %0, i64 28
  %16 = load i32, ptr %15, align 4, !tbaa !42
  %.not20 = icmp eq i32 %16, 0
  br i1 %.not20, label %36, label %17

17:                                               ; preds = %14, %7
  %.not.i = icmp eq ptr %2, null
  br i1 %.not.i, label %read_file_or_gitlink.exit31, label %18

18:                                               ; preds = %17
  %19 = getelementptr inbounds nuw i8, ptr %2, i64 72
  %20 = getelementptr inbounds nuw i8, ptr %2, i64 52
  %21 = load i32, ptr %20, align 4, !tbaa !34
  %22 = and i32 %21, 61440
  %23 = icmp eq i32 %22, 57344
  br i1 %23, label %24, label %26

24:                                               ; preds = %18
  tail call void @strbuf_grow(ptr noundef nonnull %1, i64 noundef 100) #21
  %25 = tail call ptr @oid_to_hex(ptr noundef nonnull %19) #21
  tail call void (ptr, ptr, ...) @strbuf_addf(ptr noundef nonnull %1, ptr noundef nonnull @.str.190, ptr noundef %25) #21
  br label %read_file_or_gitlink.exit31

26:                                               ; preds = %18
  call void @llvm.lifetime.start.p0(i64 4, ptr nonnull %10) #21
  call void @llvm.lifetime.start.p0(i64 8, ptr nonnull %11) #21
  %27 = load ptr, ptr @the_repository, align 8, !tbaa !31
  %28 = call ptr @repo_read_object_file(ptr noundef %27, ptr noundef nonnull %19, ptr noundef nonnull %10, ptr noundef nonnull %11) #21
  %.not.i.i = icmp eq ptr %28, null
  br i1 %.not.i.i, label %31, label %.thread.i.i

.thread.i.i:                                      ; preds = %26
  %29 = load i64, ptr %11, align 8, !tbaa !138
  %30 = add i64 %29, 1
  call void @strbuf_attach(ptr noundef nonnull %1, ptr noundef nonnull %28, i64 noundef %29, i64 noundef %30) #21
  call void @llvm.lifetime.end.p0(i64 8, ptr nonnull %11) #21
  call void @llvm.lifetime.end.p0(i64 4, ptr nonnull %10) #21
  br label %read_file_or_gitlink.exit31

31:                                               ; preds = %26
  call void @llvm.lifetime.end.p0(i64 8, ptr nonnull %11) #21
  call void @llvm.lifetime.end.p0(i64 4, ptr nonnull %10) #21
  %32 = load i32, ptr @git_gettext_enabled, align 4, !tbaa !34
  %.not4.i = icmp eq i32 %32, 0
  br i1 %.not4.i, label %_.exit, label %33

33:                                               ; preds = %31
  %34 = call ptr @dcgettext(ptr noundef null, ptr noundef nonnull @.str.188, i32 noundef 5) #21
  br label %_.exit

_.exit:                                           ; preds = %31, %33
  %.0.i26 = phi ptr [ %34, %33 ], [ @.str.188, %31 ]
  %35 = call i32 (ptr, ...) @error(ptr noundef %.0.i26, ptr noundef %5) #21
  br label %read_file_or_gitlink.exit31

36:                                               ; preds = %14
  %.not21 = icmp eq ptr %5, null
  br i1 %.not21, label %read_file_or_gitlink.exit31, label %37

37:                                               ; preds = %36
  %38 = and i32 %6, 61440
  %39 = icmp eq i32 %38, 57344
  br i1 %39, label %40, label %55

40:                                               ; preds = %37
  %.not24 = icmp eq ptr %2, null
  br i1 %.not24, label %read_file_or_gitlink.exit31, label %41

41:                                               ; preds = %40
  %42 = getelementptr inbounds nuw i8, ptr %2, i64 72
  %43 = getelementptr inbounds nuw i8, ptr %2, i64 52
  %44 = load i32, ptr %43, align 4, !tbaa !34
  %45 = and i32 %44, 61440
  %46 = icmp eq i32 %45, 57344
  br i1 %46, label %47, label %49

47:                                               ; preds = %41
  tail call void @strbuf_grow(ptr noundef nonnull %1, i64 noundef 100) #21
  %48 = tail call ptr @oid_to_hex(ptr noundef nonnull %42) #21
  tail call void (ptr, ptr, ...) @strbuf_addf(ptr noundef nonnull %1, ptr noundef nonnull @.str.190, ptr noundef %48) #21
  br label %read_file_or_gitlink.exit31

49:                                               ; preds = %41
  call void @llvm.lifetime.start.p0(i64 4, ptr nonnull %8) #21
  call void @llvm.lifetime.start.p0(i64 8, ptr nonnull %9) #21
  %50 = load ptr, ptr @the_repository, align 8, !tbaa !31
  %51 = call ptr @repo_read_object_file(ptr noundef %50, ptr noundef nonnull %42, ptr noundef nonnull %8, ptr noundef nonnull %9) #21
  %.not.i.i28 = icmp eq ptr %51, null
  br i1 %.not.i.i28, label %54, label %.thread.i.i29

.thread.i.i29:                                    ; preds = %49
  %52 = load i64, ptr %9, align 8, !tbaa !138
  %53 = add i64 %52, 1
  call void @strbuf_attach(ptr noundef nonnull %1, ptr noundef nonnull %51, i64 noundef %52, i64 noundef %53) #21
  call void @llvm.lifetime.end.p0(i64 8, ptr nonnull %9) #21
  call void @llvm.lifetime.end.p0(i64 4, ptr nonnull %8) #21
  br label %read_file_or_gitlink.exit31

54:                                               ; preds = %49
  call void @llvm.lifetime.end.p0(i64 8, ptr nonnull %9) #21
  call void @llvm.lifetime.end.p0(i64 4, ptr nonnull %8) #21
  br label %read_file_or_gitlink.exit31

55:                                               ; preds = %37
  %56 = tail call i64 @strlen(ptr noundef nonnull dereferenceable(1) %5) #22
  %57 = trunc i64 %56 to i32
  %58 = tail call i32 @has_symlink_leading_path(ptr noundef nonnull %5, i32 noundef %57) #21
  %.not22 = icmp eq i32 %58, 0
  br i1 %.not22, label %64, label %59

59:                                               ; preds = %55
  %60 = load i32, ptr @git_gettext_enabled, align 4, !tbaa !34
  %.not4.i32 = icmp eq i32 %60, 0
  br i1 %.not4.i32, label %_.exit34, label %61

61:                                               ; preds = %59
  %62 = tail call ptr @dcgettext(ptr noundef null, ptr noundef nonnull @.str.189, i32 noundef 5) #21
  br label %_.exit34

_.exit34:                                         ; preds = %59, %61
  %.0.i33 = phi ptr [ %62, %61 ], [ @.str.189, %59 ]
  %63 = tail call i32 (ptr, ...) @error(ptr noundef %.0.i33, ptr noundef nonnull %5) #21
  br label %read_file_or_gitlink.exit31

64:                                               ; preds = %55
  %65 = getelementptr i8, ptr %4, i64 64
  %.val = load i16, ptr %65, align 8
  %66 = tail call fastcc i32 @read_old_data(ptr noundef %3, i16 %.val, ptr noundef %5, ptr noundef %1)
  %.not23 = icmp eq i32 %66, 0
  br i1 %.not23, label %read_file_or_gitlink.exit31, label %67

67:                                               ; preds = %64
  %68 = load i32, ptr @git_gettext_enabled, align 4, !tbaa !34
  %.not4.i35 = icmp eq i32 %68, 0
  br i1 %.not4.i35, label %_.exit37, label %69

69:                                               ; preds = %67
  %70 = tail call ptr @dcgettext(ptr noundef null, ptr noundef nonnull @.str.188, i32 noundef 5) #21
  br label %_.exit37

_.exit37:                                         ; preds = %67, %69
  %.0.i36 = phi ptr [ %70, %69 ], [ @.str.188, %67 ]
  %71 = tail call i32 (ptr, ...) @error(ptr noundef %.0.i36, ptr noundef nonnull %5) #21
  br label %read_file_or_gitlink.exit31

read_file_or_gitlink.exit31:                      ; preds = %24, %.thread.i.i, %17, %54, %.thread.i.i29, %47, %64, %36, %40, %_.exit37, %_.exit34, %_.exit
  %.0 = phi i32 [ -1, %_.exit ], [ -1, %_.exit34 ], [ -1, %_.exit37 ], [ 1, %40 ], [ 0, %36 ], [ 0, %64 ], [ -1, %54 ], [ 0, %.thread.i.i29 ], [ 0, %47 ], [ 0, %17 ], [ 0, %.thread.i.i ], [ 0, %24 ]
  ret i32 %.0
}